; ModuleID = 'source-C-CXX/2/2163.c'
source_filename = "source-C-CXX/2/2163.c"
target datalayout = "e-m:e-p270:32:32-p271:32:32-p272:64:64-i64:64-f80:128-n8:16:32:64-S128"
target triple = "x86_64-pc-linux-gnu"

@.str = private unnamed_addr constant [6 x i8] c"%d %d\00", align 1
@.str.1 = private unnamed_addr constant [3 x i8] c"%d\00", align 1
@.str.2 = private unnamed_addr constant [4 x i8] c"yes\00", align 1
@.str.3 = private unnamed_addr constant [3 x i8] c"no\00", align 1

; Function Attrs: nofree nounwind sspstrong uwtable
define dso_local i32 @main() local_unnamed_addr #0 {
  %1 = alloca i32, align 4
  %2 = alloca i32, align 4
  %3 = alloca [1001 x i32], align 16
  %4 = bitcast i32* %1 to i8*
  call void @llvm.lifetime.start.p0i8(i64 4, i8* nonnull %4) #3
  %5 = bitcast i32* %2 to i8*
  call void @llvm.lifetime.start.p0i8(i64 4, i8* nonnull %5) #3
  %6 = bitcast [1001 x i32]* %3 to i8*
  call void @llvm.lifetime.start.p0i8(i64 4004, i8* nonnull %6) #3
  %7 = call i32 (i8*, ...) @__isoc99_scanf(i8* getelementptr inbounds ([6 x i8], [6 x i8]* @.str, i64 0, i64 0), i32* nonnull %1, i32* nonnull %2)
  %8 = load i32, i32* %1, align 4, !tbaa !5
  %9 = icmp sgt i32 %8, 0
  br i1 %9, label %12, label %52

10:                                               ; preds = %12
  %11 = icmp sgt i32 %17, 0
  br i1 %11, label %20, label %52

12:                                               ; preds = %0, %12
  %13 = phi i64 [ %16, %12 ], [ 0, %0 ]
  %14 = getelementptr inbounds [1001 x i32], [1001 x i32]* %3, i64 0, i64 %13
  %15 = call i32 (i8*, ...) @__isoc99_scanf(i8* getelementptr inbounds ([3 x i8], [3 x i8]* @.str.1, i64 0, i64 0), i32* nonnull %14)
  %16 = add nuw nsw i64 %13, 1
  %17 = load i32, i32* %1, align 4, !tbaa !5
  %18 = sext i32 %17 to i64
  %19 = icmp slt i64 %16, %18
  br i1 %19, label %12, label %10, !llvm.loop !9

20:                                               ; preds = %10, %74
  %21 = phi i64 [ %77, %74 ], [ 0, %10 ]
  %22 = phi i32 [ %78, %74 ], [ %17, %10 ]
  %23 = phi i32 [ %76, %74 ], [ 0, %10 ]
  %24 = phi i32 [ %75, %74 ], [ 0, %10 ]
  %25 = getelementptr inbounds [1001 x i32], [1001 x i32]* %3, i64 0, i64 %21
  %26 = load i32, i32* %2, align 4
  %27 = add nsw i32 %23, %24
  %28 = icmp eq i32 %27, %26
  %29 = add nsw i32 %22, -1
  br i1 %28, label %30, label %41

30:                                               ; preds = %20
  %31 = icmp sgt i32 %22, 1
  br i1 %31, label %32, label %74

32:                                               ; preds = %30
  %33 = zext i32 %29 to i64
  %34 = getelementptr inbounds [1001 x i32], [1001 x i32]* %3, i64 0, i64 %33
  %35 = load i32, i32* %34, align 4, !tbaa !5
  %36 = load i32, i32* %25, align 4, !tbaa !5
  %37 = add nsw i32 %36, %35
  %38 = icmp ne i32 %37, %26
  %39 = icmp eq i64 %21, %33
  %40 = select i1 %38, i1 true, i1 %39
  br i1 %40, label %74, label %67

41:                                               ; preds = %20
  %42 = zext i32 %29 to i64
  %43 = icmp eq i64 %21, %42
  %44 = icmp sgt i32 %22, 1
  br i1 %43, label %45, label %48, !llvm.loop !11

45:                                               ; preds = %41
  br i1 %44, label %46, label %74

46:                                               ; preds = %45
  %47 = call i32 (i8*, ...) @printf(i8* nonnull dereferenceable(1) getelementptr inbounds ([3 x i8], [3 x i8]* @.str.3, i64 0, i64 0))
  br label %74

48:                                               ; preds = %41
  br i1 %44, label %49, label %74

49:                                               ; preds = %48
  %50 = load i32, i32* %25, align 4, !tbaa !5
  %51 = zext i32 %22 to i64
  br label %56

52:                                               ; preds = %74, %0, %10
  call void @llvm.lifetime.end.p0i8(i64 4004, i8* nonnull %6) #3
  call void @llvm.lifetime.end.p0i8(i64 4, i8* nonnull %5) #3
  call void @llvm.lifetime.end.p0i8(i64 4, i8* nonnull %4) #3
  ret i32 0

53:                                               ; preds = %56
  %54 = icmp sgt i64 %57, 2
  %55 = add nsw i64 %57, -1
  br i1 %54, label %56, label %74

56:                                               ; preds = %49, %53
  %57 = phi i64 [ %51, %49 ], [ %55, %53 ]
  %58 = phi i32 [ %22, %49 ], [ %59, %53 ]
  %59 = add nsw i32 %58, -1
  %60 = zext i32 %59 to i64
  %61 = getelementptr inbounds [1001 x i32], [1001 x i32]* %3, i64 0, i64 %60
  %62 = load i32, i32* %61, align 4, !tbaa !5
  %63 = add nsw i32 %50, %62
  %64 = icmp ne i32 %63, %26
  %65 = icmp eq i64 %21, %60
  %66 = select i1 %64, i1 true, i1 %65
  br i1 %66, label %53, label %67

67:                                               ; preds = %56, %32
  %68 = phi i32 [ %29, %32 ], [ %59, %56 ]
  %69 = zext i32 %68 to i64
  %70 = getelementptr inbounds [1001 x i32], [1001 x i32]* %3, i64 0, i64 %69
  %71 = call i32 (i8*, ...) @printf(i8* nonnull dereferenceable(1) getelementptr inbounds ([4 x i8], [4 x i8]* @.str.2, i64 0, i64 0))
  %72 = load i32, i32* %70, align 4, !tbaa !5
  %73 = load i32, i32* %25, align 4, !tbaa !5
  br label %74

74:                                               ; preds = %53, %32, %30, %48, %45, %46, %67
  %75 = phi i32 [ %72, %67 ], [ %24, %46 ], [ %24, %30 ], [ %24, %32 ], [ %24, %45 ], [ %24, %48 ], [ %24, %53 ]
  %76 = phi i32 [ %73, %67 ], [ %23, %46 ], [ %23, %30 ], [ %23, %32 ], [ %23, %45 ], [ %23, %48 ], [ %23, %53 ]
  %77 = add nuw nsw i64 %21, 1
  %78 = load i32, i32* %1, align 4, !tbaa !5
  %79 = sext i32 %78 to i64
  %80 = icmp slt i64 %77, %79
  br i1 %80, label %20, label %52, !llvm.loop !12
}

; Function Attrs: argmemonly mustprogress nofree nosync nounwind willreturn
declare void @llvm.lifetime.start.p0i8(i64 immarg, i8* nocapture) #1

; Function Attrs: nofree nounwind
declare noundef i32 @__isoc99_scanf(i8* nocapture noundef readonly, ...) local_unnamed_addr #2

; Function Attrs: argmemonly mustprogress nofree nosync nounwind willreturn
declare void @llvm.lifetime.end.p0i8(i64 immarg, i8* nocapture) #1

; Function Attrs: nofree nounwind
declare noundef i32 @printf(i8* nocapture noundef readonly, ...) local_unnamed_addr #2


!llvm.module.flags = !{!0, !1, !2, !3}
!llvm.ident = !{!4}

!0 = !{i32 1, !"wchar_size", i32 4}
!1 = !{i32 7, !"PIC Level", i32 2}
!2 = !{i32 7, !"PIE Level", i32 2}
!3 = !{i32 7, !"uwtable", i32 1}
!4 = !{!"clang version 13.0.0"}
!5 = !{!6, !6, i64 0}
!6 = !{!"int", !7, i64 0}
!7 = !{!"omnipotent char", !8, i64 0}
!8 = !{!"Simple C/C++ TBAA"}
!9 = distinct !{!9, !10}
!10 = !{!"llvm.loop.mustprogress"}
!11 = distinct !{!11, !10}
!12 = distinct !{!12, !10}
